

Microchip Technology PIC18 LITE Macro Assembler V1.33 build 59893 
                                                                                               Wed Mar 18 18:13:49 2015

Microchip Technology Omniscient Code Generator (Lite mode) build 59893
     1                           	processor	18F67J94
     2                           	fnconf	rparam,??,?,0
     3                           	opt	pw 120
     4                           	opt	lm
     5                           	psect	idataCOMRAM,global,class=CODE,delta=1
     6                           	psect	nvCOMRAM,global,class=COMRAM,space=1,delta=1
     7                           	psect	smallconst,global,reloc=2,class=SMALLCONST,delta=1
     8                           	psect	cinit,global,reloc=2,class=CODE,delta=1
     9                           	psect	bssCOMRAM,global,class=COMRAM,space=1,delta=1
    10                           	psect	dataCOMRAM,global,class=COMRAM,space=1,delta=1
    11                           	psect	bssBANK0,global,class=BANK0,space=1,delta=1
    12                           	psect	bssBANK1,global,class=BANK1,space=1,delta=1
    13                           	psect	bssBANK2,global,class=BANK2,space=1,delta=1
    14                           	psect	cstackBANK0,global,class=BANK0,space=1,delta=1
    15                           	psect	cstackCOMRAM,global,class=COMRAM,space=1,delta=1
    16                           	psect	text0,global,reloc=2,class=CODE,delta=1
    17                           	psect	text1,global,reloc=2,class=CODE,delta=1
    18                           	psect	text2,global,reloc=2,class=CODE,delta=1
    19                           	psect	text3,global,reloc=2,class=CODE,delta=1
    20                           	psect	text4,global,reloc=2,class=CODE,delta=1
    21                           	psect	text5,global,reloc=2,class=CODE,delta=1
    22                           	psect	text6,global,reloc=2,class=CODE,delta=1
    23                           	psect	text7,global,reloc=2,class=CODE,delta=1
    24                           	psect	text8,global,reloc=2,class=CODE,delta=1
    25                           	psect	text9,global,reloc=2,class=CODE,delta=1
    26                           	psect	text10,global,reloc=2,class=CODE,delta=1
    27                           	psect	text11,global,reloc=2,class=CODE,delta=1
    28                           	psect	text12,global,reloc=2,class=CODE,delta=1
    29                           	psect	intcodelo,global,reloc=2,class=CODE,delta=1
    30                           	psect	intcode,global,reloc=2,class=CODE,delta=1
    31                           	psect	intcode_body,global,reloc=2,class=CODE,delta=1
    32                           	psect	intsave_regs,global,class=BIGRAM,space=1,delta=1
    33                           	psect	rparam,global,class=COMRAM,space=1,delta=1
    34  0000                     
    35 ;; Function _lightMenu is unused but had its address taken
    36  0000                     
    37 ;; Function _lcd_end is unused but had its address taken
    38  0000                     
    39                           	psect	idataCOMRAM
    40  001010                     __pidataCOMRAM:
    41                           	opt stack 0
    42                           
    43                           ;initializer for _duskLevel
    44  001010  07D0               	dw	2000
    45                           
    46                           ;initializer for _pir
    47  001012  02                 	db	2
    48  0000                     _ADCHS0Hbits	set	3719
    49  0000                     _ADCHS0Lbits	set	3718
    50  0000                     _ADCON2Hbits	set	3725
    51  0000                     _ADCON2Lbits	set	3724
    52  0000                     _ADCSS0H	set	3715
    53  0000                     _ADCSS0L	set	3714
    54  0000                     _ADCSS1L	set	3716
    55  0000                     _ALRMCFGbits	set	3931
    56  0000                     _ALRMRPT	set	3930
    57  0000                     _ALRMVALH	set	3929
    58  0000                     _ALRMVALL	set	3928
    59  0000                     _ANCON1bits	set	3655
    60  0000                     _ANCON2bits	set	3654
    61  0000                     _EECON2	set	3966
    62  0000                     _INTCONbits	set	4082
    63  0000                     _LATDbits	set	3980
    64  0000                     _PORTCbits	set	3970
    65  0000                     _PR2	set	4043
    66  0000                     _RCSTA1	set	4011
    67  0000                     _RCSTA1bits	set	4011
    68  0000                     _RCSTA3bits	set	3887
    69  0000                     _RPINR0_1	set	3626
    70  0000                     _RPINR4_5bits	set	3628
    71  0000                     _RPOR22_23bits	set	3613
    72  0000                     _RPOR32_33bits	set	3618
    73  0000                     _RPOR34_35bits	set	3619
    74  0000                     _RPOR36_37bits	set	3620
    75  0000                     _RTCCON1bits	set	3935
    76  0000                     _RTCVALH	set	3933
    77  0000                     _RTCVALL	set	3932
    78  0000                     _SPBRG1	set	4015
    79  0000                     _SPBRG3	set	3883
    80  0000                     _SPBRGH1	set	3888
    81  0000                     _SPBRGH3	set	3884
    82  0000                     _SSP1ADD	set	4040
    83  0000                     _SSP1BUF	set	4041
    84  0000                     _SSP1CON1	set	4038
    85  0000                     _SSP1CON2bits	set	4037
    86  0000                     _T2CON	set	4042
    87  0000                     _TRISAbits	set	3986
    88  0000                     _TRISBbits	set	3987
    89  0000                     _TRISCbits	set	3988
    90  0000                     _TRISD	set	3989
    91  0000                     _TRISDbits	set	3989
    92  0000                     _TRISFbits	set	3991
    93  0000                     _TRISGbits	set	3992
    94  0000                     _TXREG1	set	4013
    95  0000                     _TXSTA1bits	set	4012
    96  0000                     _TXSTA3bits	set	3886
    97  0000                     _ADRC	set	29791
    98  0000                     _DONE	set	32256
    99  0000                     _RC1IE	set	31981
   100  0000                     _RC1IF	set	31989
   101  0000                     _RC3IE	set	31501
   102  0000                     _SAMC1	set	29785
   103  0000                     _SAMP	set	32257
   104  0000                     _SSP1IF	set	31987
   105  0000                     _TX1IE	set	31980
   106  0000                     _TX1IF	set	31988
   107  0000                     _TX1IP	set	31996
   108                           
   109                           	psect	nvCOMRAM
   110  000043                     __pnvCOMRAM:
   111                           	opt stack 0
   112  000043                     _light:
   113                           	opt stack 0
   114  000043                     	ds	1
   115                           
   116                           	psect	smallconst
   117  000E00                     __psmallconst:
   118                           	opt stack 0
   119  000E00  00                 	db	0
   120  000E01                     __stringdata:
   121                           	opt stack 0
   122  000E01  45                 	db	69	;'E'
   123  000E02  78                 	db	120	;'x'
   124  000E03  69                 	db	105	;'i'
   125  000E04  74                 	db	116	;'t'
   126  000E05  20                 	db	32
   127  000E06  4D                 	db	77	;'M'
   128  000E07  2D                 	db	45
   129  000E08  4D                 	db	77	;'M'
   130  000E09  6F                 	db	111	;'o'
   131  000E0A  64                 	db	100	;'d'
   132  000E0B  65                 	db	101	;'e'
   133  000E0C  20                 	db	32
   134  000E0D  20                 	db	32
   135  000E0E  20                 	db	32
   136  000E0F  20                 	db	32
   137  000E10  20                 	db	32
   138  000E11  20                 	db	32
   139  000E12  20                 	db	32
   140  000E13  20                 	db	32
   141  000E14  00                 	db	0
   142  000E15  4C                 	db	76	;'L'
   143  000E16  69                 	db	105	;'i'
   144  000E17  67                 	db	103	;'g'
   145  000E18  68                 	db	104	;'h'
   146  000E19  74                 	db	116	;'t'
   147  000E1A  20                 	db	32
   148  000E1B  53                 	db	83	;'S'
   149  000E1C  65                 	db	101	;'e'
   150  000E1D  74                 	db	116	;'t'
   151  000E1E  74                 	db	116	;'t'
   152  000E1F  69                 	db	105	;'i'
   153  000E20  6E                 	db	110	;'n'
   154  000E21  67                 	db	103	;'g'
   155  000E22  73                 	db	115	;'s'
   156  000E23  20                 	db	32
   157  000E24  20                 	db	32
   158  000E25  20                 	db	32
   159  000E26  20                 	db	32
   160  000E27  20                 	db	32
   161  000E28  00                 	db	0
   162  000E29                     __end_of__stringdata:
   163                           	opt stack 0
   164                           
   165                           ; #config settings
   166  000E29  00                 	db	0	; dummy byte at the end
   167  0000                     
   168                           	psect	cinit
   169  000E90                     __pcinit:
   170                           	opt stack 0
   171  000E90                     start_initialization:
   172                           	opt stack 0
   173  000E90                     __initialization:
   174                           	opt stack 0
   175                           
   176                           ; Clear objects allocated to BANK2 (255 bytes)
   177  000E90  EE02  F000         	lfsr	0,__pbssBANK2
   178  000E94  EE10 F0FF          	lfsr	1,255
   179  000E98                     clear_0:
   180  000E98  6AEE               	clrf	postinc0,c
   181  000E9A  50E5               	movf	postdec1,w,c
   182  000E9C  50E1               	movf	fsr1l,w,c
   183  000E9E  E1FC               	bnz	clear_0
   184  000EA0  50E2               	movf	fsr1h,w,c
   185  000EA2  E1FA               	bnz	clear_0
   186                           
   187                           ; Clear objects allocated to BANK1 (175 bytes)
   188  000EA4  EE01  F000         	lfsr	0,__pbssBANK1
   189  000EA8  0EAF               	movlw	175
   190  000EAA                     clear_1:
   191  000EAA  6AEE               	clrf	postinc0,c
   192  000EAC  06E8               	decf	wreg,f,c
   193  000EAE  E1FD               	bnz	clear_1
   194                           
   195                           ; Clear objects allocated to BANK0 (128 bytes)
   196  000EB0  EE00  F060         	lfsr	0,__pbssBANK0
   197  000EB4  0E80               	movlw	128
   198  000EB6                     clear_2:
   199  000EB6  6AEE               	clrf	postinc0,c
   200  000EB8  06E8               	decf	wreg,f,c
   201  000EBA  E1FD               	bnz	clear_2
   202                           
   203                           ; Clear objects allocated to COMRAM (48 bytes)
   204  000EBC  EE00  F001         	lfsr	0,__pbssCOMRAM
   205  000EC0  0E30               	movlw	48
   206  000EC2                     clear_3:
   207  000EC2  6AEE               	clrf	postinc0,c
   208  000EC4  06E8               	decf	wreg,f,c
   209  000EC6  E1FD               	bnz	clear_3
   210                           
   211                           ; Initialize objects allocated to COMRAM (3 bytes)
   212                           ; load TBLPTR registers with __pidataCOMRAM
   213  000EC8  0E10               	movlw	low __pidataCOMRAM
   214  000ECA  6EF6               	movwf	tblptrl,c
   215  000ECC  0E10               	movlw	high __pidataCOMRAM
   216  000ECE  6EF7               	movwf	tblptrh,c
   217  000ED0  0E00               	movlw	low (__pidataCOMRAM shr (0+16))
   218  000ED2  6EF8               	movwf	tblptru,c
   219  000ED4  0009               	tblrd		*+	;fetch initializer
   220  000ED6  CFF5 F040          	movff	tablat,__pdataCOMRAM
   221  000EDA  0009               	tblrd		*+	;fetch initializer
   222  000EDC  CFF5 F041          	movff	tablat,__pdataCOMRAM+1
   223  000EE0  0009               	tblrd		*+	;fetch initializer
   224  000EE2  CFF5 F042          	movff	tablat,__pdataCOMRAM+2
   225  000EE6                     end_of_initialization:
   226                           	opt stack 0
   227  000EE6                     __end_of__initialization:
   228                           	opt stack 0
   229  000EE6  0100               	movlb	0
   230  000EE8  EFDC  F007         	goto	_main	;jump to C main() function
   231                           tblptru	equ	0xFF8
   232                           tblptrh	equ	0xFF7
   233                           tblptrl	equ	0xFF6
   234                           tablat	equ	0xFF5
   235                           postinc0	equ	0xFEE
   236                           wreg	equ	0xFE8
   237                           postdec1	equ	0xFE5
   238                           fsr1h	equ	0xFE2
   239                           fsr1l	equ	0xFE1
   240                           
   241                           	psect	bssCOMRAM
   242  000001                     __pbssCOMRAM:
   243                           	opt stack 0
   244  000001                     _txBuff:
   245                           	opt stack 0
   246  000001                     	ds	32
   247  000021                     _downlimit:
   248                           	opt stack 0
   249  000021                     	ds	2
   250  000023                     _leftlimit:
   251                           	opt stack 0
   252  000023                     	ds	2
   253  000025                     _rightlimit:
   254                           	opt stack 0
   255  000025                     	ds	2
   256  000027                     _uplimit:
   257                           	opt stack 0
   258  000027                     	ds	2
   259  000029                     _COMSTAT:
   260                           	opt stack 0
   261  000029                     	ds	1
   262  00002A                     _comm_overflow:
   263                           	opt stack 0
   264  00002A                     	ds	1
   265  00002B                     _move:
   266                           	opt stack 0
   267  00002B                     	ds	1
   268  00002C                     _rxPtrIn:
   269                           	opt stack 0
   270  00002C                     	ds	1
   271  00002D                     _rxPtrOut:
   272                           	opt stack 0
   273  00002D                     	ds	1
   274  00002E                     _status:
   275                           	opt stack 0
   276  00002E                     	ds	1
   277  00002F                     _txPtrIn:
   278                           	opt stack 0
   279  00002F                     	ds	1
   280  000030                     _txPtrOut:
   281                           	opt stack 0
   282  000030                     	ds	1
   283                           tblptru	equ	0xFF8
   284                           tblptrh	equ	0xFF7
   285                           tblptrl	equ	0xFF6
   286                           tablat	equ	0xFF5
   287                           postinc0	equ	0xFEE
   288                           wreg	equ	0xFE8
   289                           postdec1	equ	0xFE5
   290                           fsr1h	equ	0xFE2
   291                           fsr1l	equ	0xFE1
   292                           
   293                           	psect	dataCOMRAM
   294  000040                     __pdataCOMRAM:
   295                           	opt stack 0
   296  000040                     _duskLevel:
   297                           	opt stack 0
   298  000040                     	ds	2
   299  000042                     _pir:
   300                           	opt stack 0
   301  000042                     	ds	1
   302                           tblptru	equ	0xFF8
   303                           tblptrh	equ	0xFF7
   304                           tblptrl	equ	0xFF6
   305                           tablat	equ	0xFF5
   306                           postinc0	equ	0xFEE
   307                           wreg	equ	0xFE8
   308                           postdec1	equ	0xFE5
   309                           fsr1h	equ	0xFE2
   310                           fsr1l	equ	0xFE1
   311                           
   312                           	psect	bssBANK0
   313  000060                     __pbssBANK0:
   314                           	opt stack 0
   315  000060                     _rxBuff:
   316                           	opt stack 0
   317  000060                     	ds	128
   318                           tblptru	equ	0xFF8
   319                           tblptrh	equ	0xFF7
   320                           tblptrl	equ	0xFF6
   321                           tablat	equ	0xFF5
   322                           postinc0	equ	0xFEE
   323                           wreg	equ	0xFE8
   324                           postdec1	equ	0xFE5
   325                           fsr1h	equ	0xFE2
   326                           fsr1l	equ	0xFE1
   327                           
   328                           	psect	bssBANK1
   329  000100                     __pbssBANK1:
   330                           	opt stack 0
   331  000100                     _menue:
   332                           	opt stack 0
   333  000100                     	ds	175
   334                           tblptru	equ	0xFF8
   335                           tblptrh	equ	0xFF7
   336                           tblptrl	equ	0xFF6
   337                           tablat	equ	0xFF5
   338                           postinc0	equ	0xFEE
   339                           wreg	equ	0xFE8
   340                           postdec1	equ	0xFE5
   341                           fsr1h	equ	0xFE2
   342                           fsr1l	equ	0xFE1
   343                           
   344                           	psect	bssBANK2
   345  000200                     __pbssBANK2:
   346                           	opt stack 0
   347  000200                     _usbe:
   348                           	opt stack 0
   349  000200                     	ds	255
   350                           tblptru	equ	0xFF8
   351                           tblptrh	equ	0xFF7
   352                           tblptrl	equ	0xFF6
   353                           tablat	equ	0xFF5
   354                           postinc0	equ	0xFEE
   355                           wreg	equ	0xFE8
   356                           postdec1	equ	0xFE5
   357                           fsr1h	equ	0xFE2
   358                           fsr1l	equ	0xFE1
   359                           
   360                           	psect	cstackBANK0
   361  0000E0                     __pcstackBANK0:
   362                           	opt stack 0
   363  0000E0                     ??_isr_low:
   364                           
   365                           ; 0 bytes @ 0x0
   366  0000E0                     	ds	17
   367                           tblptru	equ	0xFF8
   368                           tblptrh	equ	0xFF7
   369                           tblptrl	equ	0xFF6
   370                           tablat	equ	0xFF5
   371                           postinc0	equ	0xFEE
   372                           wreg	equ	0xFE8
   373                           postdec1	equ	0xFE5
   374                           fsr1h	equ	0xFE2
   375                           fsr1l	equ	0xFE1
   376                           
   377                           	psect	cstackCOMRAM
   378  000031                     __pcstackCOMRAM:
   379                           	opt stack 0
   380  000031                     ??_isr_high:
   381  000031                     
   382                           ; 2 bytes @ 0x0
   383  000031                     	ds	14
   384  00003F                     setup@memStatus:
   385                           	opt stack 0
   386                           
   387                           ; 1 bytes @ 0xE
   388  00003F                     	ds	1
   389  000040                     tblptru	equ	0xFF8
   390                           tblptrh	equ	0xFF7
   391                           tblptrl	equ	0xFF6
   392                           tablat	equ	0xFF5
   393                           postinc0	equ	0xFEE
   394                           wreg	equ	0xFE8
   395                           postdec1	equ	0xFE5
   396                           fsr1h	equ	0xFE2
   397                           fsr1l	equ	0xFE1
   398                           
   399                           ; 0 bytes @ 0xF
   400 ;;
   401 ;;Main: autosize = 0, tempsize = 0, incstack = 0, save=0
   402 ;;
   403 ;; *************** function _main *****************
   404 ;; Defined at:
   405 ;;		line 89 in file "src/solarLight.c"
   406 ;; Parameters:    Size  Location     Type
   407 ;;		None
   408 ;; Auto vars:     Size  Location     Type
   409 ;;		None
   410 ;; Return value:  Size  Location     Type
   411 ;;		None               void
   412 ;; Registers used:
   413 ;;		wreg, status,2, status,0, cstack
   414 ;; Tracked objects:
   415 ;;		On entry : 0/0
   416 ;;		On exit  : 0/0
   417 ;;		Unchanged: 0/0
   418 ;; Data sizes:     COMRAM   BANK0   BANK1   BANK2   BANK3   BANK4   BANK5   BANK6   BANK7   BANK8   BANK9  BANK10  BANK1
      +1  BANK12  BANK13
   419 ;;      Params:         0       0       0       0       0       0       0       0       0       0       0       0       
      +0       0       0
   420 ;;      Locals:         0       0       0       0       0       0       0       0       0       0       0       0       
      +0       0       0
   421 ;;      Temps:          0       0       0       0       0       0       0       0       0       0       0       0       
      +0       0       0
   422 ;;      Totals:         0       0       0       0       0       0       0       0       0       0       0       0       
      +0       0       0
   423 ;;Total ram usage:        0 bytes
   424 ;; Hardware stack levels required when called:    4
   425 ;; This function calls:
   426 ;;		_loop
   427 ;;		_setup
   428 ;; This function is called by:
   429 ;;		Startup code after reset
   430 ;; This function uses a non-reentrant model
   431 ;;
   432                           
   433                           	psect	text0
   434  000FB8                     __ptext0:
   435                           	opt stack 0
   436  000FB8                     _main:
   437                           	opt stack 27
   438                           
   439                           ;solarLight.c: 94: INTCONbits.GIEH = 1;
   440                           
   441                           ;incstack = 0
   442  000FB8  8EF2               	bsf	intcon,7,c	;volatile
   443                           
   444                           ;solarLight.c: 95: INTCONbits.GIEL = 1;
   445  000FBA  8CF2               	bsf	intcon,6,c	;volatile
   446                           
   447                           ;solarLight.c: 96: INTCONbits.PEIE = 1;
   448  000FBC  8CF2               	bsf	intcon,6,c	;volatile
   449                           
   450                           ;solarLight.c: 98: setup();
   451  000FBE  EC9E  F007         	call	_setup	;wreg free
   452                           
   453                           ;solarLight.c: 100: INTCONbits.GIEH = 1;
   454  000FC2  8EF2               	bsf	intcon,7,c	;volatile
   455                           
   456                           ;solarLight.c: 101: INTCONbits.GIEL = 1;
   457  000FC4  8CF2               	bsf	intcon,6,c	;volatile
   458  000FC6                     l71:
   459  000FC6  ECCF  F007         	call	_loop	;wreg free
   460  000FCA  D7FD               	goto	l71
   461  000FCC                     __end_of_main:
   462                           	opt stack 0
   463                           tblptru	equ	0xFF8
   464                           tblptrh	equ	0xFF7
   465                           tblptrl	equ	0xFF6
   466                           tablat	equ	0xFF5
   467                           intcon	equ	0xFF2
   468                           postinc0	equ	0xFEE
   469                           wreg	equ	0xFE8
   470                           postdec1	equ	0xFE5
   471                           fsr1h	equ	0xFE2
   472                           fsr1l	equ	0xFE1
   473                           
   474 ;; *************** function _setup *****************
   475 ;; Defined at:
   476 ;;		line 106 in file "src/solarLight.c"
   477 ;; Parameters:    Size  Location     Type
   478 ;;		None
   479 ;; Auto vars:     Size  Location     Type
   480 ;;  memStatus       1   14[COMRAM] unsigned char 
   481 ;; Return value:  Size  Location     Type
   482 ;;		None               void
   483 ;; Registers used:
   484 ;;		wreg, status,2, status,0, cstack
   485 ;; Tracked objects:
   486 ;;		On entry : 0/0
   487 ;;		On exit  : 0/0
   488 ;;		Unchanged: 0/0
   489 ;; Data sizes:     COMRAM   BANK0   BANK1   BANK2   BANK3   BANK4   BANK5   BANK6   BANK7   BANK8   BANK9  BANK10  BANK1
      +1  BANK12  BANK13
   490 ;;      Params:         0       0       0       0       0       0       0       0       0       0       0       0       
      +0       0       0
   491 ;;      Locals:         1       0       0       0       0       0       0       0       0       0       0       0       
      +0       0       0
   492 ;;      Temps:          0       0       0       0       0       0       0       0       0       0       0       0       
      +0       0       0
   493 ;;      Totals:         1       0       0       0       0       0       0       0       0       0       0       0       
      +0       0       0
   494 ;;Total ram usage:        1 bytes
   495 ;; Hardware stack levels used:    1
   496 ;; Hardware stack levels required when called:    3
   497 ;; This function calls:
   498 ;;		_adc_setup
   499 ;;		_hid_setup
   500 ;;		_i2c_setup
   501 ;;		_led_setup
   502 ;;		_mem_check
   503 ;;		_movement_setup
   504 ;;		_pwm_setup
   505 ;;		_rtc_setup
   506 ;; This function is called by:
   507 ;;		_main
   508 ;; This function uses a non-reentrant model
   509 ;;
   510                           
   511                           	psect	text1
   512  000F3C                     __ptext1:
   513                           	opt stack 0
   514  000F3C                     _setup:
   515                           	opt stack 27
   516                           
   517                           ;solarLight.c: 109: unsigned char memStatus;
   518                           ;solarLight.c: 111: i2c_setup();
   519                           
   520                           ;incstack = 0
   521  000F3C  ECF4  F007         	call	_i2c_setup	;wreg free
   522                           
   523                           ;solarLight.c: 113: memStatus = mem_check();
   524  000F40  EC06  F008         	call	_mem_check	;wreg free
   525  000F44  6E3F               	movwf	setup@memStatus,c
   526                           
   527                           ;solarLight.c: 114: pwm_setup();
   528  000F46  EC02  F008         	call	_pwm_setup	;wreg free
   529                           
   530                           ;solarLight.c: 115: adc_setup();
   531  000F4A  ECB0  F007         	call	_adc_setup	;wreg free
   532                           
   533                           ;solarLight.c: 116: movement_setup();
   534  000F4E  ECE6  F007         	call	_movement_setup	;wreg free
   535                           
   536                           ;solarLight.c: 117: led_setup();
   537  000F52  ECEF  F007         	call	_led_setup	;wreg free
   538                           
   539                           ;solarLight.c: 118: hid_setup();
   540  000F56  EC76  F007         	call	_hid_setup	;wreg free
   541                           
   542                           ;solarLight.c: 119: rtc_setup();
   543  000F5A  ECFE  F007         	call	_rtc_setup	;wreg free
   544  000F5E  0012               	return	
   545  000F60                     __end_of_setup:
   546                           	opt stack 0
   547                           tblptru	equ	0xFF8
   548                           tblptrh	equ	0xFF7
   549                           tblptrl	equ	0xFF6
   550                           tablat	equ	0xFF5
   551                           intcon	equ	0xFF2
   552                           postinc0	equ	0xFEE
   553                           wreg	equ	0xFE8
   554                           postdec1	equ	0xFE5
   555                           fsr1h	equ	0xFE2
   556                           fsr1l	equ	0xFE1
   557                           
   558 ;; *************** function _rtc_setup *****************
   559 ;; Defined at:
   560 ;;		line 5 in file "src/rtc.c"
   561 ;; Parameters:    Size  Location     Type
   562 ;;		None
   563 ;; Auto vars:     Size  Location     Type
   564 ;;		None
   565 ;; Return value:  Size  Location     Type
   566 ;;		None               void
   567 ;; Registers used:
   568 ;;		None
   569 ;; Tracked objects:
   570 ;;		On entry : 0/0
   571 ;;		On exit  : 0/0
   572 ;;		Unchanged: 0/0
   573 ;; Data sizes:     COMRAM   BANK0   BANK1   BANK2   BANK3   BANK4   BANK5   BANK6   BANK7   BANK8   BANK9  BANK10  BANK1
      +1  BANK12  BANK13
   574 ;;      Params:         0       0       0       0       0       0       0       0       0       0       0       0       
      +0       0       0
   575 ;;      Locals:         0       0       0       0       0       0       0       0       0       0       0       0       
      +0       0       0
   576 ;;      Temps:          0       0       0       0       0       0       0       0       0       0       0       0       
      +0       0       0
   577 ;;      Totals:         0       0       0       0       0       0       0       0       0       0       0       0       
      +0       0       0
   578 ;;Total ram usage:        0 bytes
   579 ;; Hardware stack levels used:    1
   580 ;; Hardware stack levels required when called:    2
   581 ;; This function calls:
   582 ;;		Nothing
   583 ;; This function is called by:
   584 ;;		_setup
   585 ;; This function uses a non-reentrant model
   586 ;;
   587                           
   588                           	psect	text2
   589  000FFC                     __ptext2:
   590                           	opt stack 0
   591  000FFC                     _rtc_setup:
   592                           	opt stack 27
   593                           
   594                           ;rtc.c: 8: RTCCON1bits.RTCEN = 1;
   595                           
   596                           ;incstack = 0
   597  000FFC  010F               	movlb	15	; () banked
   598  000FFE  8F5F               	bsf	95,7,b	;volatile
   599                           
   600                           ;rtc.c: 9: status.rtcInit = 0;
   601  001000  902E               	bcf	_status,0,c
   602                           
   603                           ; BSR set to: 15
   604  001002  0012               	return	
   605  001004                     __end_of_rtc_setup:
   606                           	opt stack 0
   607                           tblptru	equ	0xFF8
   608                           tblptrh	equ	0xFF7
   609                           tblptrl	equ	0xFF6
   610                           tablat	equ	0xFF5
   611                           intcon	equ	0xFF2
   612                           postinc0	equ	0xFEE
   613                           wreg	equ	0xFE8
   614                           postdec1	equ	0xFE5
   615                           fsr1h	equ	0xFE2
   616                           fsr1l	equ	0xFE1
   617                           
   618 ;; *************** function _pwm_setup *****************
   619 ;; Defined at:
   620 ;;		line 67 in file "src/shared.c"
   621 ;; Parameters:    Size  Location     Type
   622 ;;		None
   623 ;; Auto vars:     Size  Location     Type
   624 ;;		None
   625 ;; Return value:  Size  Location     Type
   626 ;;		None               void
   627 ;; Registers used:
   628 ;;		wreg, status,2
   629 ;; Tracked objects:
   630 ;;		On entry : 0/0
   631 ;;		On exit  : 0/0
   632 ;;		Unchanged: 0/0
   633 ;; Data sizes:     COMRAM   BANK0   BANK1   BANK2   BANK3   BANK4   BANK5   BANK6   BANK7   BANK8   BANK9  BANK10  BANK1
      +1  BANK12  BANK13
   634 ;;      Params:         0       0       0       0       0       0       0       0       0       0       0       0       
      +0       0       0
   635 ;;      Locals:         0       0       0       0       0       0       0       0       0       0       0       0       
      +0       0       0
   636 ;;      Temps:          0       0       0       0       0       0       0       0       0       0       0       0       
      +0       0       0
   637 ;;      Totals:         0       0       0       0       0       0       0       0       0       0       0       0       
      +0       0       0
   638 ;;Total ram usage:        0 bytes
   639 ;; Hardware stack levels used:    1
   640 ;; Hardware stack levels required when called:    2
   641 ;; This function calls:
   642 ;;		Nothing
   643 ;; This function is called by:
   644 ;;		_setup
   645 ;; This function uses a non-reentrant model
   646 ;;
   647                           
   648                           	psect	text3
   649  001004                     __ptext3:
   650                           	opt stack 0
   651  001004                     _pwm_setup:
   652                           	opt stack 27
   653                           
   654                           ;shared.c: 71: PR2 = 0XFF;
   655                           
   656                           ; BSR set to: 15
   657                           ;incstack = 0
   658  001004  68CB               	setf	4043,c	;volatile
   659                           
   660                           ;shared.c: 72: T2CON = 0b00000111;
   661  001006  0E07               	movlw	7
   662  001008  6ECA               	movwf	4042,c	;volatile
   663  00100A  0012               	return	
   664  00100C                     __end_of_pwm_setup:
   665                           	opt stack 0
   666                           tblptru	equ	0xFF8
   667                           tblptrh	equ	0xFF7
   668                           tblptrl	equ	0xFF6
   669                           tablat	equ	0xFF5
   670                           intcon	equ	0xFF2
   671                           postinc0	equ	0xFEE
   672                           wreg	equ	0xFE8
   673                           postdec1	equ	0xFE5
   674                           fsr1h	equ	0xFE2
   675                           fsr1l	equ	0xFE1
   676                           
   677 ;; *************** function _movement_setup *****************
   678 ;; Defined at:
   679 ;;		line 7 in file "src/movement.c"
   680 ;; Parameters:    Size  Location     Type
   681 ;;		None
   682 ;; Auto vars:     Size  Location     Type
   683 ;;		None
   684 ;; Return value:  Size  Location     Type
   685 ;;		None               void
   686 ;; Registers used:
   687 ;;		None
   688 ;; Tracked objects:
   689 ;;		On entry : 0/0
   690 ;;		On exit  : 0/0
   691 ;;		Unchanged: 0/0
   692 ;; Data sizes:     COMRAM   BANK0   BANK1   BANK2   BANK3   BANK4   BANK5   BANK6   BANK7   BANK8   BANK9  BANK10  BANK1
      +1  BANK12  BANK13
   693 ;;      Params:         0       0       0       0       0       0       0       0       0       0       0       0       
      +0       0       0
   694 ;;      Locals:         0       0       0       0       0       0       0       0       0       0       0       0       
      +0       0       0
   695 ;;      Temps:          0       0       0       0       0       0       0       0       0       0       0       0       
      +0       0       0
   696 ;;      Totals:         0       0       0       0       0       0       0       0       0       0       0       0       
      +0       0       0
   697 ;;Total ram usage:        0 bytes
   698 ;; Hardware stack levels used:    1
   699 ;; Hardware stack levels required when called:    2
   700 ;; This function calls:
   701 ;;		Nothing
   702 ;; This function is called by:
   703 ;;		_setup
   704 ;; This function uses a non-reentrant model
   705 ;;
   706                           
   707                           	psect	text4
   708  000FCC                     __ptext4:
   709                           	opt stack 0
   710  000FCC                     _movement_setup:
   711                           	opt stack 27
   712                           
   713                           ;movement.c: 10: TRISBbits.TRISB1 = 0;
   714                           
   715                           ;incstack = 0
   716  000FCC  9293               	bcf	3987,1,c	;volatile
   717                           
   718                           ;movement.c: 11: TRISBbits.TRISB2 = 0;
   719  000FCE  9493               	bcf	3987,2,c	;volatile
   720                           
   721                           ;movement.c: 12: TRISBbits.TRISB3 = 0;
   722  000FD0  9693               	bcf	3987,3,c	;volatile
   723                           
   724                           ;movement.c: 13: TRISBbits.TRISB4 = 0;
   725  000FD2  9893               	bcf	3987,4,c	;volatile
   726                           
   727                           ;movement.c: 14: TRISDbits.TRISD4 = 0;
   728  000FD4  9895               	bcf	3989,4,c	;volatile
   729                           
   730                           ;movement.c: 15: TRISDbits.TRISD5 = 0;
   731  000FD6  9A95               	bcf	3989,5,c	;volatile
   732                           
   733                           ;movement.c: 16: TRISDbits.TRISD6 = 0;
   734  000FD8  9C95               	bcf	3989,6,c	;volatile
   735                           
   736                           ;movement.c: 17: TRISDbits.TRISD7 = 0;
   737  000FDA  9E95               	bcf	3989,7,c	;volatile
   738  000FDC  0012               	return	
   739  000FDE                     __end_of_movement_setup:
   740                           	opt stack 0
   741                           tblptru	equ	0xFF8
   742                           tblptrh	equ	0xFF7
   743                           tblptrl	equ	0xFF6
   744                           tablat	equ	0xFF5
   745                           intcon	equ	0xFF2
   746                           postinc0	equ	0xFEE
   747                           wreg	equ	0xFE8
   748                           postdec1	equ	0xFE5
   749                           fsr1h	equ	0xFE2
   750                           fsr1l	equ	0xFE1
   751                           
   752 ;; *************** function _mem_check *****************
   753 ;; Defined at:
   754 ;;		line 6 in file "src/eeprom.c"
   755 ;; Parameters:    Size  Location     Type
   756 ;;		None
   757 ;; Auto vars:     Size  Location     Type
   758 ;;		None
   759 ;; Return value:  Size  Location     Type
   760 ;;                  1    wreg      unsigned char 
   761 ;; Registers used:
   762 ;;		wreg
   763 ;; Tracked objects:
   764 ;;		On entry : 0/0
   765 ;;		On exit  : 0/0
   766 ;;		Unchanged: 0/0
   767 ;; Data sizes:     COMRAM   BANK0   BANK1   BANK2   BANK3   BANK4   BANK5   BANK6   BANK7   BANK8   BANK9  BANK10  BANK1
      +1  BANK12  BANK13
   768 ;;      Params:         0       0       0       0       0       0       0       0       0       0       0       0       
      +0       0       0
   769 ;;      Locals:         0       0       0       0       0       0       0       0       0       0       0       0       
      +0       0       0
   770 ;;      Temps:          0       0       0       0       0       0       0       0       0       0       0       0       
      +0       0       0
   771 ;;      Totals:         0       0       0       0       0       0       0       0       0       0       0       0       
      +0       0       0
   772 ;;Total ram usage:        0 bytes
   773 ;; Hardware stack levels used:    1
   774 ;; Hardware stack levels required when called:    2
   775 ;; This function calls:
   776 ;;		Nothing
   777 ;; This function is called by:
   778 ;;		_setup
   779 ;; This function uses a non-reentrant model
   780 ;;
   781                           
   782                           	psect	text5
   783  00100C                     __ptext5:
   784                           	opt stack 0
   785  00100C                     _mem_check:
   786                           	opt stack 27
   787                           
   788                           ;eeprom.c: 8: return 0;
   789                           
   790                           ;incstack = 0
   791  00100C  0E00               	movlw	0
   792  00100E  0012               	return	
   793  001010                     __end_of_mem_check:
   794                           	opt stack 0
   795                           tblptru	equ	0xFF8
   796                           tblptrh	equ	0xFF7
   797                           tblptrl	equ	0xFF6
   798                           tablat	equ	0xFF5
   799                           intcon	equ	0xFF2
   800                           postinc0	equ	0xFEE
   801                           wreg	equ	0xFE8
   802                           postdec1	equ	0xFE5
   803                           fsr1h	equ	0xFE2
   804                           fsr1l	equ	0xFE1
   805                           
   806 ;; *************** function _led_setup *****************
   807 ;; Defined at:
   808 ;;		line 7 in file "src/light.c"
   809 ;; Parameters:    Size  Location     Type
   810 ;;		None
   811 ;; Auto vars:     Size  Location     Type
   812 ;;		None
   813 ;; Return value:  Size  Location     Type
   814 ;;                  2   18[COMRAM] int 
   815 ;; Registers used:
   816 ;;		wreg, status,2, status,0
   817 ;; Tracked objects:
   818 ;;		On entry : 0/0
   819 ;;		On exit  : 0/0
   820 ;;		Unchanged: 0/0
   821 ;; Data sizes:     COMRAM   BANK0   BANK1   BANK2   BANK3   BANK4   BANK5   BANK6   BANK7   BANK8   BANK9  BANK10  BANK1
      +1  BANK12  BANK13
   822 ;;      Params:         0       0       0       0       0       0       0       0       0       0       0       0       
      +0       0       0
   823 ;;      Locals:         0       0       0       0       0       0       0       0       0       0       0       0       
      +0       0       0
   824 ;;      Temps:          0       0       0       0       0       0       0       0       0       0       0       0       
      +0       0       0
   825 ;;      Totals:         0       0       0       0       0       0       0       0       0       0       0       0       
      +0       0       0
   826 ;;Total ram usage:        0 bytes
   827 ;; Hardware stack levels used:    1
   828 ;; Hardware stack levels required when called:    2
   829 ;; This function calls:
   830 ;;		Nothing
   831 ;; This function is called by:
   832 ;;		_setup
   833 ;; This function uses a non-reentrant model
   834 ;;
   835                           
   836                           	psect	text6
   837  000FDE                     __ptext6:
   838                           	opt stack 0
   839  000FDE                     _led_setup:
   840                           	opt stack 27
   841                           
   842                           ;light.c: 10: TRISCbits.TRISC7 = 0;
   843                           
   844                           ;incstack = 0
   845  000FDE  9E94               	bcf	3988,7,c	;volatile
   846                           
   847                           ;light.c: 11: light = light ^ 0b00000001;
   848  000FE0  5043               	movf	_light,w,c
   849  000FE2  0A01               	xorlw	1
   850  000FE4  6E43               	movwf	_light,c
   851  000FE6  0012               	return	
   852  000FE8                     __end_of_led_setup:
   853                           	opt stack 0
   854                           tblptru	equ	0xFF8
   855                           tblptrh	equ	0xFF7
   856                           tblptrl	equ	0xFF6
   857                           tablat	equ	0xFF5
   858                           intcon	equ	0xFF2
   859                           postinc0	equ	0xFEE
   860                           wreg	equ	0xFE8
   861                           postdec1	equ	0xFE5
   862                           fsr1h	equ	0xFE2
   863                           fsr1l	equ	0xFE1
   864                           
   865 ;; *************** function _i2c_setup *****************
   866 ;; Defined at:
   867 ;;		line 93 in file "src/shared.c"
   868 ;; Parameters:    Size  Location     Type
   869 ;;		None
   870 ;; Auto vars:     Size  Location     Type
   871 ;;		None
   872 ;; Return value:  Size  Location     Type
   873 ;;		None               void
   874 ;; Registers used:
   875 ;;		wreg, status,2
   876 ;; Tracked objects:
   877 ;;		On entry : 0/0
   878 ;;		On exit  : 0/0
   879 ;;		Unchanged: 0/0
   880 ;; Data sizes:     COMRAM   BANK0   BANK1   BANK2   BANK3   BANK4   BANK5   BANK6   BANK7   BANK8   BANK9  BANK10  BANK1
      +1  BANK12  BANK13
   881 ;;      Params:         0       0       0       0       0       0       0       0       0       0       0       0       
      +0       0       0
   882 ;;      Locals:         0       0       0       0       0       0       0       0       0       0       0       0       
      +0       0       0
   883 ;;      Temps:          0       0       0       0       0       0       0       0       0       0       0       0       
      +0       0       0
   884 ;;      Totals:         0       0       0       0       0       0       0       0       0       0       0       0       
      +0       0       0
   885 ;;Total ram usage:        0 bytes
   886 ;; Hardware stack levels used:    1
   887 ;; Hardware stack levels required when called:    2
   888 ;; This function calls:
   889 ;;		Nothing
   890 ;; This function is called by:
   891 ;;		_setup
   892 ;; This function uses a non-reentrant model
   893 ;;
   894                           
   895                           	psect	text7
   896  000FE8                     __ptext7:
   897                           	opt stack 0
   898  000FE8                     _i2c_setup:
   899                           	opt stack 27
   900                           
   901                           ;shared.c: 95: SSP1CON1 = 0b00101000;
   902                           
   903                           ;incstack = 0
   904  000FE8  0E28               	movlw	40
   905  000FEA  6EC6               	movwf	4038,c	;volatile
   906                           
   907                           ;shared.c: 96: SSP1ADD = 0x4B;
   908  000FEC  0E4B               	movlw	75
   909  000FEE  6EC8               	movwf	4040,c	;volatile
   910  000FF0  0012               	return	
   911  000FF2                     __end_of_i2c_setup:
   912                           	opt stack 0
   913                           tblptru	equ	0xFF8
   914                           tblptrh	equ	0xFF7
   915                           tblptrl	equ	0xFF6
   916                           tablat	equ	0xFF5
   917                           intcon	equ	0xFF2
   918                           postinc0	equ	0xFEE
   919                           wreg	equ	0xFE8
   920                           postdec1	equ	0xFE5
   921                           fsr1h	equ	0xFE2
   922                           fsr1l	equ	0xFE1
   923                           
   924 ;; *************** function _hid_setup *****************
   925 ;; Defined at:
   926 ;;		line 6 in file "src/hid.c"
   927 ;; Parameters:    Size  Location     Type
   928 ;;		None
   929 ;; Auto vars:     Size  Location     Type
   930 ;;		None
   931 ;; Return value:  Size  Location     Type
   932 ;;		None               void
   933 ;; Registers used:
   934 ;;		wreg, status,2, status,0
   935 ;; Tracked objects:
   936 ;;		On entry : 0/0
   937 ;;		On exit  : 0/0
   938 ;;		Unchanged: 0/0
   939 ;; Data sizes:     COMRAM   BANK0   BANK1   BANK2   BANK3   BANK4   BANK5   BANK6   BANK7   BANK8   BANK9  BANK10  BANK1
      +1  BANK12  BANK13
   940 ;;      Params:         0       0       0       0       0       0       0       0       0       0       0       0       
      +0       0       0
   941 ;;      Locals:         0       0       0       0       0       0       0       0       0       0       0       0       
      +0       0       0
   942 ;;      Temps:          0       0       0       0       0       0       0       0       0       0       0       0       
      +0       0       0
   943 ;;      Totals:         0       0       0       0       0       0       0       0       0       0       0       0       
      +0       0       0
   944 ;;Total ram usage:        0 bytes
   945 ;; Hardware stack levels used:    1
   946 ;; Hardware stack levels required when called:    2
   947 ;; This function calls:
   948 ;;		Nothing
   949 ;; This function is called by:
   950 ;;		_setup
   951 ;; This function uses a non-reentrant model
   952 ;;
   953                           
   954                           	psect	text8
   955  000EEC                     __ptext8:
   956                           	opt stack 0
   957  000EEC                     _hid_setup:
   958                           	opt stack 27
   959                           
   960                           ;hid.c: 9: TRISD &= 0b01110000;
   961                           
   962                           ;incstack = 0
   963  000EEC  0E70               	movlw	112
   964  000EEE  1695               	andwf	3989,f,c	;volatile
   965                           
   966                           ;hid.c: 10: RPOR32_33bits.RPO32R = 0x9;
   967  000EF0  010E               	movlb	14	; () banked
   968  000EF2  5122               	movf	34,w,b	;volatile
   969  000EF4  0BF0               	andlw	-16
   970  000EF6  0909               	iorlw	9
   971  000EF8  010E               	movlb	14	; () banked
   972  000EFA  6F22               	movwf	34,b	;volatile
   973                           
   974                           ; BSR set to: 14
   975                           ;hid.c: 11: RPOR34_35bits.RPO34R = 0x9;
   976  000EFC  010E               	movlb	14	; () banked
   977  000EFE  5123               	movf	35,w,b	;volatile
   978  000F00  0BF0               	andlw	-16
   979  000F02  0909               	iorlw	9
   980  000F04  010E               	movlb	14	; () banked
   981  000F06  6F23               	movwf	35,b	;volatile
   982                           
   983                           ; BSR set to: 14
   984                           ;hid.c: 12: RPOR36_37bits.RPO37R = 0x8;
   985  000F08  010E               	movlb	14	; () banked
   986  000F0A  5124               	movf	36,w,b	;volatile
   987  000F0C  0B0F               	andlw	-241
   988  000F0E  0980               	iorlw	128
   989  000F10  010E               	movlb	14	; () banked
   990  000F12  6F24               	movwf	36,b	;volatile
   991                           
   992                           ; BSR set to: 14
   993                           ;hid.c: 16: SPBRGH3 = 0x00;
   994  000F14  0E00               	movlw	0
   995  000F16  010F               	movlb	15	; () banked
   996  000F18  6F2C               	movwf	44,b	;volatile
   997                           
   998                           ; BSR set to: 15
   999                           ;hid.c: 17: SPBRG3 = 0x00;
  1000  000F1A  0E00               	movlw	0
  1001  000F1C  010F               	movlb	15	; () banked
  1002  000F1E  6F2B               	movwf	43,b	;volatile
  1003                           
  1004                           ; BSR set to: 15
  1005                           ;hid.c: 18: TXSTA3bits.SYNC = 0;
  1006  000F20  010F               	movlb	15	; () banked
  1007  000F22  992E               	bcf	46,4,b	;volatile
  1008                           
  1009                           ; BSR set to: 15
  1010                           ;hid.c: 19: RCSTA3bits.SPEN = 1;
  1011  000F24  010F               	movlb	15	; () banked
  1012  000F26  8F2F               	bsf	47,7,b	;volatile
  1013                           
  1014                           ; BSR set to: 15
  1015                           ;hid.c: 20: RC3IE = 0;
  1016  000F28  9A61               	bcf	3937,5,c	;volatile
  1017                           
  1018                           ; BSR set to: 15
  1019                           ;hid.c: 21: RCSTA3bits.CREN = 1;
  1020  000F2A  010F               	movlb	15	; () banked
  1021  000F2C  892F               	bsf	47,4,b	;volatile
  1022                           
  1023                           ; BSR set to: 15
  1024                           ;hid.c: 22: RPINR4_5bits.U3RXR = 0x7;
  1025  000F2E  010E               	movlb	14	; () banked
  1026  000F30  512C               	movf	44,w,b	;volatile
  1027  000F32  0BF0               	andlw	-16
  1028  000F34  0907               	iorlw	7
  1029  000F36  010E               	movlb	14	; () banked
  1030  000F38  6F2C               	movwf	44,b	;volatile
  1031                           
  1032                           ; BSR set to: 14
  1033  000F3A  0012               	return	
  1034  000F3C                     __end_of_hid_setup:
  1035                           	opt stack 0
  1036                           tblptru	equ	0xFF8
  1037                           tblptrh	equ	0xFF7
  1038                           tblptrl	equ	0xFF6
  1039                           tablat	equ	0xFF5
  1040                           intcon	equ	0xFF2
  1041                           postinc0	equ	0xFEE
  1042                           wreg	equ	0xFE8
  1043                           postdec1	equ	0xFE5
  1044                           fsr1h	equ	0xFE2
  1045                           fsr1l	equ	0xFE1
  1046                           
  1047 ;; *************** function _adc_setup *****************
  1048 ;; Defined at:
  1049 ;;		line 10 in file "src/shared.c"
  1050 ;; Parameters:    Size  Location     Type
  1051 ;;		None
  1052 ;; Auto vars:     Size  Location     Type
  1053 ;;		None
  1054 ;; Return value:  Size  Location     Type
  1055 ;;		None               void
  1056 ;; Registers used:
  1057 ;;		wreg, status,2
  1058 ;; Tracked objects:
  1059 ;;		On entry : 0/0
  1060 ;;		On exit  : 0/0
  1061 ;;		Unchanged: 0/0
  1062 ;; Data sizes:     COMRAM   BANK0   BANK1   BANK2   BANK3   BANK4   BANK5   BANK6   BANK7   BANK8   BANK9  BANK10  BANK1
      +1  BANK12  BANK13
  1063 ;;      Params:         0       0       0       0       0       0       0       0       0       0       0       0       
      +0       0       0
  1064 ;;      Locals:         0       0       0       0       0       0       0       0       0       0       0       0       
      +0       0       0
  1065 ;;      Temps:          0       0       0       0       0       0       0       0       0       0       0       0       
      +0       0       0
  1066 ;;      Totals:         0       0       0       0       0       0       0       0       0       0       0       0       
      +0       0       0
  1067 ;;Total ram usage:        0 bytes
  1068 ;; Hardware stack levels used:    1
  1069 ;; Hardware stack levels required when called:    2
  1070 ;; This function calls:
  1071 ;;		Nothing
  1072 ;; This function is called by:
  1073 ;;		_setup
  1074 ;; This function uses a non-reentrant model
  1075 ;;
  1076                           
  1077                           	psect	text9
  1078  000F60                     __ptext9:
  1079                           	opt stack 0
  1080  000F60                     _adc_setup:
  1081                           	opt stack 27
  1082                           
  1083                           ;shared.c: 13: ADCSS0L = 0b00011101;
  1084                           
  1085                           ; BSR set to: 14
  1086                           ;incstack = 0
  1087  000F60  0E1D               	movlw	29
  1088  000F62  010E               	movlb	14	; () banked
  1089  000F64  6F82               	movwf	130,b	;volatile
  1090                           
  1091                           ;shared.c: 14: ADCSS0H = 0b00000001;
  1092  000F66  0E01               	movlw	1
  1093  000F68  010E               	movlb	14	; () banked
  1094  000F6A  6F83               	movwf	131,b	;volatile
  1095                           
  1096                           ;shared.c: 15: ADCSS1L = 0b00001110;
  1097  000F6C  0E0E               	movlw	14
  1098  000F6E  010E               	movlb	14	; () banked
  1099  000F70  6F84               	movwf	132,b	;volatile
  1100                           
  1101                           ;shared.c: 16: ADCSS0H = 0;
  1102  000F72  0E00               	movlw	0
  1103  000F74  010E               	movlb	14	; () banked
  1104  000F76  6F83               	movwf	131,b	;volatile
  1105                           
  1106                           ; BSR set to: 14
  1107                           ;shared.c: 17: SAMC1 = 10;
  1108  000F78  010E               	movlb	14	; () banked
  1109  000F7A  938B               	bcf	139,1,b	;volatile
  1110                           
  1111                           ; BSR set to: 14
  1112                           ;shared.c: 18: ADRC = 1;
  1113  000F7C  010E               	movlb	14	; () banked
  1114  000F7E  8F8B               	bsf	139,7,b	;volatile
  1115                           
  1116                           ; BSR set to: 14
  1117  000F80  0012               	return	
  1118  000F82                     __end_of_adc_setup:
  1119                           	opt stack 0
  1120                           tblptru	equ	0xFF8
  1121                           tblptrh	equ	0xFF7
  1122                           tblptrl	equ	0xFF6
  1123                           tablat	equ	0xFF5
  1124                           intcon	equ	0xFF2
  1125                           postinc0	equ	0xFEE
  1126                           wreg	equ	0xFE8
  1127                           postdec1	equ	0xFE5
  1128                           fsr1h	equ	0xFE2
  1129                           fsr1l	equ	0xFE1
  1130                           
  1131 ;; *************** function _loop *****************
  1132 ;; Defined at:
  1133 ;;		line 126 in file "src/solarLight.c"
  1134 ;; Parameters:    Size  Location     Type
  1135 ;;		None
  1136 ;; Auto vars:     Size  Location     Type
  1137 ;;		None
  1138 ;; Return value:  Size  Location     Type
  1139 ;;		None               void
  1140 ;; Registers used:
  1141 ;;		wreg, status,2, status,0, cstack
  1142 ;; Tracked objects:
  1143 ;;		On entry : 0/0
  1144 ;;		On exit  : 0/0
  1145 ;;		Unchanged: 0/0
  1146 ;; Data sizes:     COMRAM   BANK0   BANK1   BANK2   BANK3   BANK4   BANK5   BANK6   BANK7   BANK8   BANK9  BANK10  BANK1
      +1  BANK12  BANK13
  1147 ;;      Params:         0       0       0       0       0       0       0       0       0       0       0       0       
      +0       0       0
  1148 ;;      Locals:         0       0       0       0       0       0       0       0       0       0       0       0       
      +0       0       0
  1149 ;;      Temps:          0       0       0       0       0       0       0       0       0       0       0       0       
      +0       0       0
  1150 ;;      Totals:         0       0       0       0       0       0       0       0       0       0       0       0       
      +0       0       0
  1151 ;;Total ram usage:        0 bytes
  1152 ;; Hardware stack levels used:    1
  1153 ;; Hardware stack levels required when called:    3
  1154 ;; This function calls:
  1155 ;;		_adc_updateAll
  1156 ;;		_hid_loop
  1157 ;; This function is called by:
  1158 ;;		_main
  1159 ;; This function uses a non-reentrant model
  1160 ;;
  1161                           
  1162                           	psect	text10
  1163  000F9E                     __ptext10:
  1164                           	opt stack 0
  1165  000F9E                     _loop:
  1166                           	opt stack 27
  1167                           
  1168                           ;solarLight.c: 130: adc_updateAll();
  1169                           
  1170                           ; BSR set to: 14
  1171                           ;incstack = 0
  1172  000F9E  ECF9  F007         	call	_adc_updateAll	;wreg free
  1173                           
  1174                           ;solarLight.c: 139: ;
  1175                           ;solarLight.c: 140: }
  1176                           
  1177                           ;solarLight.c: 137: case 3:
  1178                           
  1179                           ;solarLight.c: 136: break;
  1180                           
  1181                           ;solarLight.c: 135: case 2:
  1182                           
  1183                           ;solarLight.c: 134: break;
  1184                           
  1185                           ;solarLight.c: 132: {
  1186                           ;solarLight.c: 133: case 1:
  1187                           
  1188                           ;solarLight.c: 131: switch(status.state)
  1189  000FA2  382E               	swapf	_status,w,c
  1190  000FA4  0B03               	andlw	3
  1191                           
  1192                           ; Switch size 1, requested type "space"
  1193                           ; Number of cases is 3, Range of values is 1 to 3
  1194                           ; switch strategies available:
  1195                           ; Name         Instructions Cycles
  1196                           ; simple_byte           10     6 (average)
  1197                           ;	Chosen strategy is simple_byte
  1198  000FA6  0A01               	xorlw	1	; case 1
  1199  000FA8  B4D8               	btfsc	status,2,c
  1200  000FAA  D003               	goto	l1288
  1201  000FAC  0A03               	xorlw	3	; case 2
  1202  000FAE  A4D8               	btfss	status,2,c
  1203  000FB0  0A01               	xorlw	1	; case 3
  1204  000FB2                     l1288:
  1205                           
  1206                           ;solarLight.c: 141: hid_loop();
  1207  000FB2  ECC1  F007         	call	_hid_loop	;wreg free
  1208  000FB6  0012               	return	
  1209  000FB8                     __end_of_loop:
  1210                           	opt stack 0
  1211                           tblptru	equ	0xFF8
  1212                           tblptrh	equ	0xFF7
  1213                           tblptrl	equ	0xFF6
  1214                           tablat	equ	0xFF5
  1215                           intcon	equ	0xFF2
  1216                           postinc0	equ	0xFEE
  1217                           wreg	equ	0xFE8
  1218                           postdec1	equ	0xFE5
  1219                           fsr1h	equ	0xFE2
  1220                           fsr1l	equ	0xFE1
  1221                           status	equ	0xFD8
  1222                           
  1223 ;; *************** function _hid_loop *****************
  1224 ;; Defined at:
  1225 ;;		line 29 in file "src/hid.c"
  1226 ;; Parameters:    Size  Location     Type
  1227 ;;		None
  1228 ;; Auto vars:     Size  Location     Type
  1229 ;;		None
  1230 ;; Return value:  Size  Location     Type
  1231 ;;		None               void
  1232 ;; Registers used:
  1233 ;;		wreg, status,2, status,0
  1234 ;; Tracked objects:
  1235 ;;		On entry : 0/0
  1236 ;;		On exit  : 0/0
  1237 ;;		Unchanged: 0/0
  1238 ;; Data sizes:     COMRAM   BANK0   BANK1   BANK2   BANK3   BANK4   BANK5   BANK6   BANK7   BANK8   BANK9  BANK10  BANK1
      +1  BANK12  BANK13
  1239 ;;      Params:         0       0       0       0       0       0       0       0       0       0       0       0       
      +0       0       0
  1240 ;;      Locals:         0       0       0       0       0       0       0       0       0       0       0       0       
      +0       0       0
  1241 ;;      Temps:          0       0       0       0       0       0       0       0       0       0       0       0       
      +0       0       0
  1242 ;;      Totals:         0       0       0       0       0       0       0       0       0       0       0       0       
      +0       0       0
  1243 ;;Total ram usage:        0 bytes
  1244 ;; Hardware stack levels used:    1
  1245 ;; Hardware stack levels required when called:    2
  1246 ;; This function calls:
  1247 ;;		Nothing
  1248 ;; This function is called by:
  1249 ;;		_loop
  1250 ;; This function uses a non-reentrant model
  1251 ;;
  1252                           
  1253                           	psect	text11
  1254  000F82                     __ptext11:
  1255                           	opt stack 0
  1256  000F82                     _hid_loop:
  1257                           	opt stack 27
  1258                           
  1259                           ;hid.c: 44: }
  1260                           
  1261                           ;hid.c: 43: break;
  1262                           
  1263                           ;hid.c: 42: case 3:
  1264                           
  1265                           ;hid.c: 41: break;
  1266                           
  1267                           ;hid.c: 40: case 2:
  1268                           
  1269                           ;hid.c: 39: break;
  1270                           
  1271                           ;hid.c: 38: case 1:
  1272                           
  1273                           ;hid.c: 37: break;
  1274                           
  1275                           ;hid.c: 35: {
  1276                           ;hid.c: 36: case 0:
  1277                           
  1278                           ;hid.c: 34: switch (status.mmode)
  1279                           
  1280                           ;incstack = 0
  1281  000F82  302E               	rrcf	_status,w,c
  1282  000F84  32E8               	rrcf	wreg,f,c
  1283  000F86  0B03               	andlw	3
  1284                           
  1285                           ; Switch size 1, requested type "space"
  1286                           ; Number of cases is 4, Range of values is 0 to 3
  1287                           ; switch strategies available:
  1288                           ; Name         Instructions Cycles
  1289                           ; simple_byte           13     7 (average)
  1290                           ;	Chosen strategy is simple_byte
  1291  000F88  0A00               	xorlw	0	; case 0
  1292  000F8A  B4D8               	btfsc	status,2,c
  1293  000F8C  0012               	return	
  1294  000F8E  0A01               	xorlw	1	; case 1
  1295  000F90  B4D8               	btfsc	status,2,c
  1296  000F92  0012               	return	
  1297  000F94  0A03               	xorlw	3	; case 2
  1298  000F96  B4D8               	btfsc	status,2,c
  1299  000F98  0012               	return	
  1300  000F9A  0A01               	xorlw	1	; case 3
  1301  000F9C  0012               	return	
  1302  000F9E                     __end_of_hid_loop:
  1303                           	opt stack 0
  1304                           tblptru	equ	0xFF8
  1305                           tblptrh	equ	0xFF7
  1306                           tblptrl	equ	0xFF6
  1307                           tablat	equ	0xFF5
  1308                           intcon	equ	0xFF2
  1309                           postinc0	equ	0xFEE
  1310                           wreg	equ	0xFE8
  1311                           postdec1	equ	0xFE5
  1312                           fsr1h	equ	0xFE2
  1313                           fsr1l	equ	0xFE1
  1314                           status	equ	0xFD8
  1315                           
  1316 ;; *************** function _adc_updateAll *****************
  1317 ;; Defined at:
  1318 ;;		line 58 in file "src/shared.c"
  1319 ;; Parameters:    Size  Location     Type
  1320 ;;		None
  1321 ;; Auto vars:     Size  Location     Type
  1322 ;;		None
  1323 ;; Return value:  Size  Location     Type
  1324 ;;		None               void
  1325 ;; Registers used:
  1326 ;;		None
  1327 ;; Tracked objects:
  1328 ;;		On entry : 0/0
  1329 ;;		On exit  : 0/0
  1330 ;;		Unchanged: 0/0
  1331 ;; Data sizes:     COMRAM   BANK0   BANK1   BANK2   BANK3   BANK4   BANK5   BANK6   BANK7   BANK8   BANK9  BANK10  BANK1
      +1  BANK12  BANK13
  1332 ;;      Params:         0       0       0       0       0       0       0       0       0       0       0       0       
      +0       0       0
  1333 ;;      Locals:         0       0       0       0       0       0       0       0       0       0       0       0       
      +0       0       0
  1334 ;;      Temps:          0       0       0       0       0       0       0       0       0       0       0       0       
      +0       0       0
  1335 ;;      Totals:         0       0       0       0       0       0       0       0       0       0       0       0       
      +0       0       0
  1336 ;;Total ram usage:        0 bytes
  1337 ;; Hardware stack levels used:    1
  1338 ;; Hardware stack levels required when called:    2
  1339 ;; This function calls:
  1340 ;;		Nothing
  1341 ;; This function is called by:
  1342 ;;		_loop
  1343 ;; This function uses a non-reentrant model
  1344 ;;
  1345                           
  1346                           	psect	text12
  1347  000FF2                     __ptext12:
  1348                           	opt stack 0
  1349  000FF2                     _adc_updateAll:
  1350                           	opt stack 27
  1351                           
  1352                           ;shared.c: 60: ADCON2Hbits.CSCNA = 1;
  1353                           
  1354                           ;incstack = 0
  1355  000FF2  010E               	movlb	14	; () banked
  1356  000FF4  858D               	bsf	141,2,b	;volatile
  1357                           
  1358                           ;shared.c: 62: ADCON2Hbits.CSCNA = 0;
  1359  000FF6  010E               	movlb	14	; () banked
  1360  000FF8  958D               	bcf	141,2,b	;volatile
  1361                           
  1362                           ; BSR set to: 14
  1363  000FFA  0012               	return	
  1364  000FFC                     __end_of_adc_updateAll:
  1365                           	opt stack 0
  1366                           tblptru	equ	0xFF8
  1367                           tblptrh	equ	0xFF7
  1368                           tblptrl	equ	0xFF6
  1369                           tablat	equ	0xFF5
  1370                           intcon	equ	0xFF2
  1371                           postinc0	equ	0xFEE
  1372                           wreg	equ	0xFE8
  1373                           postdec1	equ	0xFE5
  1374                           fsr1h	equ	0xFE2
  1375                           fsr1l	equ	0xFE1
  1376                           status	equ	0xFD8
  1377                           
  1378 ;; *************** function _isr_low *****************
  1379 ;; Defined at:
  1380 ;;		line 162 in file "src/solarLight.c"
  1381 ;; Parameters:    Size  Location     Type
  1382 ;;		None
  1383 ;; Auto vars:     Size  Location     Type
  1384 ;;		None
  1385 ;; Return value:  Size  Location     Type
  1386 ;;		None               void
  1387 ;; Registers used:
  1388 ;;		wreg, fsr2l, fsr2h, status,2, status,0, prodl, prodh
  1389 ;; Tracked objects:
  1390 ;;		On entry : 0/0
  1391 ;;		On exit  : 0/0
  1392 ;;		Unchanged: 0/0
  1393 ;; Data sizes:     COMRAM   BANK0   BANK1   BANK2   BANK3   BANK4   BANK5   BANK6   BANK7   BANK8   BANK9  BANK10  BANK1
      +1  BANK12  BANK13
  1394 ;;      Params:         0       0       0       0       0       0       0       0       0       0       0       0       
      +0       0       0
  1395 ;;      Locals:         0       0       0       0       0       0       0       0       0       0       0       0       
      +0       0       0
  1396 ;;      Temps:          0      17       0       0       0       0       0       0       0       0       0       0       
      +0       0       0
  1397 ;;      Totals:         0      17       0       0       0       0       0       0       0       0       0       0       
      +0       0       0
  1398 ;;Total ram usage:       17 bytes
  1399 ;; Hardware stack levels used:    1
  1400 ;; Hardware stack levels required when called:    1
  1401 ;; This function calls:
  1402 ;;		Nothing
  1403 ;; This function is called by:
  1404 ;;		Interrupt level 1
  1405 ;; This function uses a non-reentrant model
  1406 ;;
  1407                           
  1408                           	psect	intcodelo
  1409  000018                     __pintcodelo:
  1410                           	opt stack 0
  1411  000018                     _isr_low:
  1412                           	opt stack 27
  1413                           
  1414                           ; BSR set to: 14
  1415                           ;incstack = 0
  1416  000018  CFD8 F0E0          	movff	status,??_isr_low
  1417  00001C  CFE8 F0E1          	movff	wreg,??_isr_low+1
  1418  000020  CFE0 F0E2          	movff	bsr,??_isr_low+2
  1419  000024  CFFA F0E3          	movff	pclath,??_isr_low+3
  1420  000028  CFFB F0E4          	movff	pclatu,??_isr_low+4
  1421  00002C  CFE9 F0E5          	movff	fsr0l,??_isr_low+5
  1422  000030  CFEA F0E6          	movff	fsr0h,??_isr_low+6
  1423  000034  CFE1 F0E7          	movff	fsr1l,??_isr_low+7
  1424  000038  CFE2 F0E8          	movff	fsr1h,??_isr_low+8
  1425  00003C  CFD9 F0E9          	movff	fsr2l,??_isr_low+9
  1426  000040  CFDA F0EA          	movff	fsr2h,??_isr_low+10
  1427  000044  CFF3 F0EB          	movff	prodl,??_isr_low+11
  1428  000048  CFF4 F0EC          	movff	prodh,??_isr_low+12
  1429  00004C  CFF6 F0ED          	movff	tblptrl,??_isr_low+13
  1430  000050  CFF7 F0EE          	movff	tblptrh,??_isr_low+14
  1431  000054  CFF8 F0EF          	movff	tblptru,??_isr_low+15
  1432  000058  CFF5 F0F0          	movff	tablat,??_isr_low+16
  1433                           
  1434                           ;solarLight.c: 164: if(TX1IE && TX1IF)
  1435  00005C  B89D               	btfsc	3997,4,c	;volatile
  1436  00005E  A89E               	btfss	3998,4,c	;volatile
  1437  000060  D012               	goto	i1l1756
  1438                           
  1439                           ;solarLight.c: 165: {
  1440                           ;solarLight.c: 166: TX1IF = 0;
  1441  000062  989E               	bcf	3998,4,c	;volatile
  1442                           
  1443                           ;solarLight.c: 167: if(COMSTAT.TOKEN && (txPtrOut != txPtrIn))
  1444  000064  A029               	btfss	_COMSTAT,0,c
  1445  000066  D00F               	goto	i1l1756
  1446  000068  5030               	movf	_txPtrOut,w,c
  1447  00006A  182F               	xorwf	_txPtrIn,w,c
  1448  00006C  B4D8               	btfsc	status,2,c
  1449  00006E  D00B               	goto	i1l1756
  1450                           
  1451                           ;solarLight.c: 168: {
  1452                           ;solarLight.c: 169: TXREG1 = txBuff[txPtrOut++];
  1453  000070  5030               	movf	_txPtrOut,w,c
  1454  000072  0D01               	mullw	1
  1455  000074  0E01               	movlw	low _txBuff
  1456  000076  24F3               	addwf	prodl,w,c
  1457  000078  6ED9               	movwf	fsr2l,c
  1458  00007A  0E00               	movlw	high _txBuff
  1459  00007C  20F4               	addwfc	prodh,w,c
  1460  00007E  6EDA               	movwf	fsr2h,c
  1461  000080  50DF               	movf	indf2,w,c
  1462  000082  6EAD               	movwf	4013,c	;volatile
  1463  000084  2A30               	incf	_txPtrOut,f,c
  1464  000086                     i1l1756:
  1465                           
  1466                           ;solarLight.c: 170: }
  1467                           ;solarLight.c: 172: }
  1468                           ;solarLight.c: 173: if(RC1IE && RC1IF)
  1469  000086  BA9D               	btfsc	3997,5,c	;volatile
  1470  000088  D000               	goto	i1l94
  1471  00008A                     i1l94:
  1472  00008A  C0F0  FFF5         	movff	??_isr_low+16,tablat
  1473  00008E  C0EF  FFF8         	movff	??_isr_low+15,tblptru
  1474  000092  C0EE  FFF7         	movff	??_isr_low+14,tblptrh
  1475  000096  C0ED  FFF6         	movff	??_isr_low+13,tblptrl
  1476  00009A  C0EC  FFF4         	movff	??_isr_low+12,prodh
  1477  00009E  C0EB  FFF3         	movff	??_isr_low+11,prodl
  1478  0000A2  C0EA  FFDA         	movff	??_isr_low+10,fsr2h
  1479  0000A6  C0E9  FFD9         	movff	??_isr_low+9,fsr2l
  1480  0000AA  C0E8  FFE2         	movff	??_isr_low+8,fsr1h
  1481  0000AE  C0E7  FFE1         	movff	??_isr_low+7,fsr1l
  1482  0000B2  C0E6  FFEA         	movff	??_isr_low+6,fsr0h
  1483  0000B6  C0E5  FFE9         	movff	??_isr_low+5,fsr0l
  1484  0000BA  C0E4  FFFB         	movff	??_isr_low+4,pclatu
  1485  0000BE  C0E3  FFFA         	movff	??_isr_low+3,pclath
  1486  0000C2  C0E2  FFE0         	movff	??_isr_low+2,bsr
  1487  0000C6  C0E1  FFE8         	movff	??_isr_low+1,wreg
  1488  0000CA  C0E0  FFD8         	movff	??_isr_low,status
  1489  0000CE  0010               	retfie	
  1490  0000D0                     __end_of_isr_low:
  1491                           	opt stack 0
  1492                           pclatu	equ	0xFFB
  1493                           pclath	equ	0xFFA
  1494                           tblptru	equ	0xFF8
  1495                           tblptrh	equ	0xFF7
  1496                           tblptrl	equ	0xFF6
  1497                           tablat	equ	0xFF5
  1498                           prodh	equ	0xFF4
  1499                           prodl	equ	0xFF3
  1500                           intcon	equ	0xFF2
  1501                           postinc0	equ	0xFEE
  1502                           fsr0h	equ	0xFEA
  1503                           fsr0l	equ	0xFE9
  1504                           wreg	equ	0xFE8
  1505                           postdec1	equ	0xFE5
  1506                           fsr1h	equ	0xFE2
  1507                           fsr1l	equ	0xFE1
  1508                           bsr	equ	0xFE0
  1509                           indf2	equ	0xFDF
  1510                           fsr2h	equ	0xFDA
  1511                           fsr2l	equ	0xFD9
  1512                           status	equ	0xFD8
  1513                           
  1514 ;; *************** function _isr_high *****************
  1515 ;; Defined at:
  1516 ;;		line 186 in file "src/solarLight.c"
  1517 ;; Parameters:    Size  Location     Type
  1518 ;;		None
  1519 ;; Auto vars:     Size  Location     Type
  1520 ;;		None
  1521 ;; Return value:  Size  Location     Type
  1522 ;;		None               void
  1523 ;; Registers used:
  1524 ;;		None
  1525 ;; Tracked objects:
  1526 ;;		On entry : 0/0
  1527 ;;		On exit  : 0/0
  1528 ;;		Unchanged: 0/0
  1529 ;; Data sizes:     COMRAM   BANK0   BANK1   BANK2   BANK3   BANK4   BANK5   BANK6   BANK7   BANK8   BANK9  BANK10  BANK1
      +1  BANK12  BANK13
  1530 ;;      Params:         0       0       0       0       0       0       0       0       0       0       0       0       
      +0       0       0
  1531 ;;      Locals:         0       0       0       0       0       0       0       0       0       0       0       0       
      +0       0       0
  1532 ;;      Temps:         14       0       0       0       0       0       0       0       0       0       0       0       
      +0       0       0
  1533 ;;      Totals:        14       0       0       0       0       0       0       0       0       0       0       0       
      +0       0       0
  1534 ;;Total ram usage:       14 bytes
  1535 ;; Hardware stack levels used:    1
  1536 ;; This function calls:
  1537 ;;		Nothing
  1538 ;; This function is called by:
  1539 ;;		Interrupt level 2
  1540 ;; This function uses a non-reentrant model
  1541 ;;
  1542                           
  1543                           	psect	intcode
  1544  000008                     __pintcode:
  1545                           	opt stack 0
  1546  000008                     _isr_high:
  1547                           	opt stack 27
  1548                           
  1549                           ;incstack = 0
  1550  000008  CFFA F031          	movff	pclath,??_isr_high
  1551  00000C  CFFB F032          	movff	pclatu,??_isr_high+1
  1552  000010  CFE9 F033          	movff	fsr0l,??_isr_high+2
  1553  000014  EF15  F007         	goto	int_func
  1554                           pclatu	equ	0xFFB
  1555                           pclath	equ	0xFFA
  1556                           tblptru	equ	0xFF8
  1557                           tblptrh	equ	0xFF7
  1558                           tblptrl	equ	0xFF6
  1559                           tablat	equ	0xFF5
  1560                           prodh	equ	0xFF4
  1561                           prodl	equ	0xFF3
  1562                           intcon	equ	0xFF2
  1563                           postinc0	equ	0xFEE
  1564                           fsr0h	equ	0xFEA
  1565                           fsr0l	equ	0xFE9
  1566                           wreg	equ	0xFE8
  1567                           postdec1	equ	0xFE5
  1568                           fsr1h	equ	0xFE2
  1569                           fsr1l	equ	0xFE1
  1570                           bsr	equ	0xFE0
  1571                           indf2	equ	0xFDF
  1572                           fsr2h	equ	0xFDA
  1573                           fsr2l	equ	0xFD9
  1574                           status	equ	0xFD8
  1575                           
  1576                           	psect	intcode_body
  1577  000E2A                     __pintcode_body:
  1578                           	opt stack 27
  1579  000E2A                     int_func:
  1580                           	opt stack 27
  1581  000E2A  CFEA F034          	movff	fsr0h,??_isr_high+3
  1582  000E2E  CFE1 F035          	movff	fsr1l,??_isr_high+4
  1583  000E32  CFE2 F036          	movff	fsr1h,??_isr_high+5
  1584  000E36  CFD9 F037          	movff	fsr2l,??_isr_high+6
  1585  000E3A  CFDA F038          	movff	fsr2h,??_isr_high+7
  1586  000E3E  CFF3 F039          	movff	prodl,??_isr_high+8
  1587  000E42  CFF4 F03A          	movff	prodh,??_isr_high+9
  1588  000E46  CFF6 F03B          	movff	tblptrl,??_isr_high+10
  1589  000E4A  CFF7 F03C          	movff	tblptrh,??_isr_high+11
  1590  000E4E  CFF8 F03D          	movff	tblptru,??_isr_high+12
  1591  000E52  CFF5 F03E          	movff	tablat,??_isr_high+13
  1592  000E56  C03E  FFF5         	movff	??_isr_high+13,tablat
  1593  000E5A  C03D  FFF8         	movff	??_isr_high+12,tblptru
  1594  000E5E  C03C  FFF7         	movff	??_isr_high+11,tblptrh
  1595  000E62  C03B  FFF6         	movff	??_isr_high+10,tblptrl
  1596  000E66  C03A  FFF4         	movff	??_isr_high+9,prodh
  1597  000E6A  C039  FFF3         	movff	??_isr_high+8,prodl
  1598  000E6E  C038  FFDA         	movff	??_isr_high+7,fsr2h
  1599  000E72  C037  FFD9         	movff	??_isr_high+6,fsr2l
  1600  000E76  C036  FFE2         	movff	??_isr_high+5,fsr1h
  1601  000E7A  C035  FFE1         	movff	??_isr_high+4,fsr1l
  1602  000E7E  C034  FFEA         	movff	??_isr_high+3,fsr0h
  1603  000E82  C033  FFE9         	movff	??_isr_high+2,fsr0l
  1604  000E86  C032  FFFB         	movff	??_isr_high+1,pclatu
  1605  000E8A  C031  FFFA         	movff	??_isr_high,pclath
  1606  000E8E  0011               	retfie		f
  1607  000E90                     __end_of_isr_high:
  1608                           	opt stack 0
  1609                           pclatu	equ	0xFFB
  1610                           pclath	equ	0xFFA
  1611                           tblptru	equ	0xFF8
  1612                           tblptrh	equ	0xFF7
  1613                           tblptrl	equ	0xFF6
  1614                           tablat	equ	0xFF5
  1615                           prodh	equ	0xFF4
  1616                           prodl	equ	0xFF3
  1617                           intcon	equ	0xFF2
  1618                           postinc0	equ	0xFEE
  1619                           fsr0h	equ	0xFEA
  1620                           fsr0l	equ	0xFE9
  1621                           wreg	equ	0xFE8
  1622                           postdec1	equ	0xFE5
  1623                           fsr1h	equ	0xFE2
  1624                           fsr1l	equ	0xFE1
  1625                           bsr	equ	0xFE0
  1626                           indf2	equ	0xFDF
  1627                           fsr2h	equ	0xFDA
  1628                           fsr2l	equ	0xFD9
  1629                           status	equ	0xFD8
  1630                           pclatu	equ	0xFFB
  1631                           pclath	equ	0xFFA
  1632                           tblptru	equ	0xFF8
  1633                           tblptrh	equ	0xFF7
  1634                           tblptrl	equ	0xFF6
  1635                           tablat	equ	0xFF5
  1636                           prodh	equ	0xFF4
  1637                           prodl	equ	0xFF3
  1638                           intcon	equ	0xFF2
  1639                           postinc0	equ	0xFEE
  1640                           fsr0h	equ	0xFEA
  1641                           fsr0l	equ	0xFE9
  1642                           wreg	equ	0xFE8
  1643                           postdec1	equ	0xFE5
  1644                           fsr1h	equ	0xFE2
  1645                           fsr1l	equ	0xFE1
  1646                           bsr	equ	0xFE0
  1647                           indf2	equ	0xFDF
  1648                           fsr2h	equ	0xFDA
  1649                           fsr2l	equ	0xFD9
  1650                           status	equ	0xFD8
  1651                           
  1652                           	psect	rparam
  1653  0000                     pclatu	equ	0xFFB
  1654                           pclath	equ	0xFFA
  1655                           tblptru	equ	0xFF8
  1656                           tblptrh	equ	0xFF7
  1657                           tblptrl	equ	0xFF6
  1658                           tablat	equ	0xFF5
  1659                           prodh	equ	0xFF4
  1660                           prodl	equ	0xFF3
  1661                           intcon	equ	0xFF2
  1662                           postinc0	equ	0xFEE
  1663                           fsr0h	equ	0xFEA
  1664                           fsr0l	equ	0xFE9
  1665                           wreg	equ	0xFE8
  1666                           postdec1	equ	0xFE5
  1667                           fsr1h	equ	0xFE2
  1668                           fsr1l	equ	0xFE1
  1669                           bsr	equ	0xFE0
  1670                           indf2	equ	0xFDF
  1671                           fsr2h	equ	0xFDA
  1672                           fsr2l	equ	0xFD9
  1673                           status	equ	0xFD8


Data Sizes:
    Strings     40
    Constant    0
    Data        3
    BSS         606
    Persistent  1
    Stack       0

Auto Spaces:
    Space          Size  Autos    Used
    COMRAM           95     15      67
    BANK0           160     17     145
    BANK1           256      0     175
    BANK2           256      0     255
    BANK3           256      0       0
    BANK4           256      0       0
    BANK5           256      0       0
    BANK6           256      0       0
    BANK7           256      0       0
    BANK8           256      0       0
    BANK9           256      0       0
    BANK10          256      0       0
    BANK11          256      0       0
    BANK12          256      0       0
    BANK13          250      0       0

Pointer List with Targets:

    i2c_rx@packet.data	PTR unsigned char  size(2) Largest target is 0

    packet.data	PTR unsigned char  size(2) Largest target is 0

    S578$function	PTR FTN()void  size(3) Largest target is 0
		 -> lcd_end(), 

    usbe.function	PTR FTN()void  size(3) Largest target is 0
		 -> lcd_end(), 

    S574$function	PTR FTN()void  size(3) Largest target is 0
		 -> lcd_end(), lightMenu(), 

    menue.function	PTR FTN()void  size(3) Largest target is 0
		 -> lcd_end(), lightMenu(), 

    S574$text	PTR const unsigned char  size(2) Largest target is 20
		 -> STR_2(CODE[20]), STR_1(CODE[20]), 

    menue.text	PTR const unsigned char  size(2) Largest target is 20
		 -> STR_2(CODE[20]), STR_1(CODE[20]), 

    sp__mem_read	PTR unsigned char  size(2) Largest target is 0
		 -> NULL(NULL[0]), 

    S532$data	PTR unsigned char  size(2) Largest target is 0

    packet.data	PTR unsigned char  size(2) Largest target is 0


Critical Paths under _main in COMRAM

    _main->_setup

Critical Paths under _isr_low in COMRAM

    None.

Critical Paths under _isr_high in COMRAM

    None.

Critical Paths under _main in BANK0

    None.

Critical Paths under _isr_low in BANK0

    None.

Critical Paths under _isr_high in BANK0

    None.

Critical Paths under _main in BANK1

    None.

Critical Paths under _isr_low in BANK1

    None.

Critical Paths under _isr_high in BANK1

    None.

Critical Paths under _main in BANK2

    None.

Critical Paths under _isr_low in BANK2

    None.

Critical Paths under _isr_high in BANK2

    None.

Critical Paths under _main in BANK3

    None.

Critical Paths under _isr_low in BANK3

    None.

Critical Paths under _isr_high in BANK3

    None.

Critical Paths under _main in BANK4

    None.

Critical Paths under _isr_low in BANK4

    None.

Critical Paths under _isr_high in BANK4

    None.

Critical Paths under _main in BANK5

    None.

Critical Paths under _isr_low in BANK5

    None.

Critical Paths under _isr_high in BANK5

    None.

Critical Paths under _main in BANK6

    None.

Critical Paths under _isr_low in BANK6

    None.

Critical Paths under _isr_high in BANK6

    None.

Critical Paths under _main in BANK7

    None.

Critical Paths under _isr_low in BANK7

    None.

Critical Paths under _isr_high in BANK7

    None.

Critical Paths under _main in BANK8

    None.

Critical Paths under _isr_low in BANK8

    None.

Critical Paths under _isr_high in BANK8

    None.

Critical Paths under _main in BANK9

    None.

Critical Paths under _isr_low in BANK9

    None.

Critical Paths under _isr_high in BANK9

    None.

Critical Paths under _main in BANK10

    None.

Critical Paths under _isr_low in BANK10

    None.

Critical Paths under _isr_high in BANK10

    None.

Critical Paths under _main in BANK11

    None.

Critical Paths under _isr_low in BANK11

    None.

Critical Paths under _isr_high in BANK11

    None.

Critical Paths under _main in BANK12

    None.

Critical Paths under _isr_low in BANK12

    None.

Critical Paths under _isr_high in BANK12

    None.

Critical Paths under _main in BANK13

    None.

Critical Paths under _isr_low in BANK13

    None.

Critical Paths under _isr_high in BANK13

    None.

Call Graph Tables:

 ---------------------------------------------------------------------------------
 (Depth) Function   	        Calls       Base Space   Used Autos Params    Refs
 ---------------------------------------------------------------------------------
 (0) _main                                                 0     0      0       0
                               _loop
                              _setup
 ---------------------------------------------------------------------------------
 (1) _setup                                                1     1      0       0
                                             14 COMRAM     1     1      0
                          _adc_setup
                          _hid_setup
                          _i2c_setup
                          _led_setup
                          _mem_check
                     _movement_setup
                          _pwm_setup
                          _rtc_setup
 ---------------------------------------------------------------------------------
 (2) _rtc_setup                                            0     0      0       0
 ---------------------------------------------------------------------------------
 (2) _pwm_setup                                            0     0      0       0
 ---------------------------------------------------------------------------------
 (2) _movement_setup                                       0     0      0       0
 ---------------------------------------------------------------------------------
 (2) _mem_check                                            0     0      0       0
 ---------------------------------------------------------------------------------
 (2) _led_setup                                            0     0      0       0
 ---------------------------------------------------------------------------------
 (2) _i2c_setup                                            0     0      0       0
 ---------------------------------------------------------------------------------
 (2) _hid_setup                                            0     0      0       0
 ---------------------------------------------------------------------------------
 (2) _adc_setup                                            0     0      0       0
 ---------------------------------------------------------------------------------
 (1) _loop                                                 0     0      0       0
                      _adc_updateAll
                           _hid_loop
 ---------------------------------------------------------------------------------
 (2) _hid_loop                                             0     0      0       0
 ---------------------------------------------------------------------------------
 (2) _adc_updateAll                                        0     0      0       0
 ---------------------------------------------------------------------------------
 Estimated maximum stack depth 2
 ---------------------------------------------------------------------------------
 (Depth) Function   	        Calls       Base Space   Used Autos Params    Refs
 ---------------------------------------------------------------------------------
 (3) _isr_low                                             17    17      0       0
                                              0 BANK0     17    17      0
 ---------------------------------------------------------------------------------
 Estimated maximum stack depth 3
 ---------------------------------------------------------------------------------
 (Depth) Function   	        Calls       Base Space   Used Autos Params    Refs
 ---------------------------------------------------------------------------------
 (4) _isr_high                                            14    14      0       0
                                              0 COMRAM    14    14      0
 ---------------------------------------------------------------------------------
 Estimated maximum stack depth 4
 ---------------------------------------------------------------------------------

 Call Graph Graphs:

 _main (ROOT)
   _loop
     _adc_updateAll
     _hid_loop
   _setup
     _adc_setup
     _hid_setup
     _i2c_setup
     _led_setup
     _mem_check
     _movement_setup
     _pwm_setup
     _rtc_setup

 _isr_low (ROOT)

 _isr_high (ROOT)

 Address spaces:
Name               Size   Autos  Total    Cost      Usage
BIGRAM             DF9      0       0      33        0.0%
BITBANK12          100      0       0      29        0.0%
BANK12             100      0       0      30        0.0%
BITBANK11          100      0       0      27        0.0%
BANK11             100      0       0      28        0.0%
BITBANK10          100      0       0      25        0.0%
BANK10             100      0       0      26        0.0%
BITBANK9           100      0       0      23        0.0%
BANK9              100      0       0      24        0.0%
BITBANK8           100      0       0      21        0.0%
BANK8              100      0       0      22        0.0%
BITBANK7           100      0       0      19        0.0%
BANK7              100      0       0      20        0.0%
BITBANK6           100      0       0      17        0.0%
BANK6              100      0       0      18        0.0%
BITBANK5           100      0       0      15        0.0%
BANK5              100      0       0      16        0.0%
BITBANK4           100      0       0      13        0.0%
BANK4              100      0       0      14        0.0%
BITBANK3           100      0       0      11        0.0%
BANK3              100      0       0      12        0.0%
BITBANK2           100      0       0       9        0.0%
BANK2              100      0      FF      10       99.6%
BITBANK1           100      0       0       6        0.0%
BANK1              100      0      AF       7       68.4%
BITBANK13           FA      0       0      31        0.0%
BANK13              FA      0       0      32        0.0%
BITBANK0            A0      0       0       4        0.0%
BANK0               A0     11      91       5       90.6%
BITCOMRAM           5F      0       0       0        0.0%
COMRAM              5F      F      43       1       70.5%
BITSFR_3             0      0       0      40        0.0%
SFR_3                0      0       0      40        0.0%
BITSFR_2             0      0       0      40        0.0%
SFR_2                0      0       0      40        0.0%
BITSFR_1             0      0       0      40        0.0%
SFR_1                0      0       0      40        0.0%
BITSFR               0      0       0      40        0.0%
SFR                  0      0       0      40        0.0%
STACK                0      0       0       2        0.0%
NULL                 0      0       0       0        0.0%
ABS                  0      0     282       8        0.0%
DATA                 0      0     282       3        0.0%
CODE                 0      0       0       0        0.0%


Microchip Technology PIC18 Macro Assembler V1.33 build 59893 
Symbol Table                                                                                   Wed Mar 18 18:13:49 2015

                     l71 0FC6                       bsr 000FE0              __CFG_BORV$0 000000  
           __CFG_CP0$OFF 000000                      _PR2 000FCB                      _pir 0042  
                    prod 000FF3                      wreg 000FE8               _TXSTA1bits 000FAC  
           __CFG_IESO$ON 000000               _TXSTA3bits 000F2E                     l1288 0FB2  
                   _ADRC 00745F                     STR_1 0E01                     STR_2 0E15  
                   _DONE 007E00                     i1l94 008A                     _SAMP 007E01  
                   _main 0FB8                     _loop 0F9E                     _move 002B  
                   fsr0h 000FEA                     fsr1h 000FE2                     fsr0l 000FE9  
                   fsr2h 000FDA                     _usbe 0200                     fsr1l 000FE1  
                   indf2 000FDF                     fsr2l 000FD9                     pclat 000FFA  
          __CFG_BOREN$ON 000000                     prodh 000FF4                     prodl 000FF3  
     __CFG_WDTWIN$PS25_0 000000                     start 00D0       __CFG_LS48MHZ$SYSX2 000000  
          __CFG_RETEN$ON 000000                    ?_main 0031                    ?_loop 0031  
                  _T2CON 000FCA                    _RC1IE 007CED                    _RC1IF 007CF5  
                  _RC3IE 007B0D                    _SAMC1 007459                    _TX1IE 007CEC  
                  _TX1IF 007CF4                    _TX1IP 007CFC                    _TRISD 000F95  
          __CFG_WPSA$128 000000                    _light 0043                    _menue 0100  
                  _setup 0F3C          __end_of_isr_low 00D0                    tablat 000FF5  
                  status 000FD8          __initialization 0E90             __end_of_main 0FCC  
           __end_of_loop 0FB8   __size_of_adc_updateAll 000A                   ??_main 0040  
                 ??_loop 003F            __activetblptr 000003      __CFG_WPEND$WPENDMEM 000000  
         __CFG_POSCMD$HS 000000           __CFG_VBTBOR$ON 000000                   _EECON2 000F7E  
                 ?_setup 0031                   i1l1756 0086           __CFG_WDTEN$OFF 000000  
                 _RCSTA1 000FAB                   _SPBRG1 000FAF                   _SPBRG3 000F2B  
                 _SSP1IF 007CF3       __size_of_i2c_setup 000A                   _TXREG1 000FAD  
         __CFG_XINST$OFF 000000         __end_of_hid_loop 0F9E                   clear_0 0E98  
                 clear_1 0EAA                   clear_2 0EB6                   clear_3 0EC2  
                 _rxBuff 0060                   _txBuff 0001          __CFG_CLKOEN$OFF 000000  
       __end_of_isr_high 0E90                   _status 002E             __pdataCOMRAM 0040  
              ??_isr_low 00E0             __mediumconst 0000                   tblptrh 000FF7  
                 tblptrl 000FF6                   tblptru 000FF8          __CFG_DSBITEN$ON 000000  
          _adc_updateAll 0FF2          __CFG_DSBOREN$ON 000000               __accesstop 0060  
__end_of__initialization 0EE6       __CFG_DSWDTOSC$SOSC 000000       __size_of_adc_setup 0022  
        __CFG_T5GSEL$T5G 000000           __pcstackCOMRAM 0031          __CFG_DSWDTEN$ON 000000  
          __end_of_setup 0F60        __end_of_i2c_setup 0FF2       __size_of_hid_setup 0050  
         ?_adc_updateAll 0031       __size_of_led_setup 000A                  ??_setup 003F  
             __pbssBANK0 0060               __pbssBANK1 0100               __pbssBANK2 0200  
     __size_of_mem_check 0004               __pnvCOMRAM 0043  __size_of_movement_setup 0012  
                _ADCSS0H 000E83                  _ADCSS0L 000E82                  _ADCSS1L 000E84  
                _ALRMRPT 000F5A                  _COMSTAT 0029        __end_of_adc_setup 0F82  
     __size_of_rtc_setup 0008                  _SPBRGH1 000F30                  _SPBRGH3 000F2C  
                _SSP1ADD 000FC8                  _SSP1BUF 000FC9                  _RTCVALH 000F5D  
                _RTCVALL 000F5C       __size_of_pwm_setup 0008                ?_hid_loop 0031  
              ?_isr_high 0031                  __Hparam 0000                  __Lparam 0000  
      __end_of_hid_setup 0F3C        __end_of_led_setup 0FE8             __psmallconst 0E00  
        __CFG_STVREN$OFF 000000                  __pcinit 0E90                  __ramtop 0E00  
      __end_of_mem_check 1010                  __ptext0 0FB8                  __ptext1 0F3C  
                __ptext2 0FFC                  __ptext3 1004                  __ptext4 0FCC  
                __ptext5 100C                  __ptext6 0FDE                  __ptext7 0FE8  
                __ptext8 0EEC                  __ptext9 0F60                  _lcd_end 000000  
                _isr_low 0018          ??_adc_updateAll 003F                  _rxPtrIn 002C  
                _txPtrIn 002F               ??_hid_loop 003F                  _uplimit 0027  
         __pintcode_body 0E2A     end_of_initialization 0EE6                  int_func 0E2A  
             ??_isr_high 0031               _rightlimit 0025        __end_of_rtc_setup 1004  
                postdec1 000FE5                  postinc0 000FEE        __end_of_pwm_setup 100C  
       __CFG_FSCM$CSECME 000000                _PORTCbits 000F82              _ADCHS0Hbits 000E87  
            _ADCHS0Lbits 000E86         __CFG_FOSC$PRIPLL 000000              _ADCON2Hbits 000E8D  
              _TRISAbits 000F92                _TRISBbits 000F93              _ADCON2Lbits 000E8C  
              _TRISCbits 000F94                _TRISDbits 000F95                _TRISFbits 000F97  
              _TRISGbits 000F98     __CFG_CINASEL$DEFAULT 000000         __CFG_IOL1WAY$OFF 000000  
         _movement_setup 0FCC        __CFG_WPFP$WPFP255 000000            __pidataCOMRAM 1010  
    start_initialization 0E90                _i2c_setup 0FE8   __end_of_movement_setup 0FDE  
            _ALRMCFGbits 000F5B              __pbssCOMRAM 0001            __pcstackBANK0 00E0  
             ?_i2c_setup 0031      __end_of__stringdata 0E29                _adc_setup 0F60  
          _RPOR22_23bits 000E1D         __CFG_PLLDIV$DIV4 000000            _RPOR32_33bits 000E22  
      __size_of_hid_loop 001C            _RPOR34_35bits 000E23          ?_movement_setup 0031  
          _RPOR36_37bits 000E24        __size_of_isr_high 0E88                __pintcode 0008  
            __pintcodelo 0018                _hid_setup 0EEC                _led_setup 0FDE  
            __smallconst 0E00                 ?_isr_low 0031                _mem_check 100C  
              _leftlimit 0023                _duskLevel 0040                _lightMenu 000000  
              _downlimit 0021                 _ALRMVALH 000F59                 _ALRMVALL 000F58  
             ?_adc_setup 0031           __size_of_setup 0024                 _LATDbits 000F8C  
       __CFG_WDTCLK$SOSC 000000         __CFG_WDTPS$32768 000000                 _RPINR0_1 000E2A  
               _SSP1CON1 000FC6                _rtc_setup 0FFC               ?_hid_setup 0031  
            __stringdata 0E01                _pwm_setup 1004         __CFG_SOSCSEL$LOW 000000  
             ?_led_setup 0031               ?_mem_check 0031              ??_i2c_setup 003F  
       __CFG_WPDIS$WPDIS 000000    __end_of_adc_updateAll 0FFC               _ANCON1bits 000E47  
             _ANCON2bits 000E46                 __Hrparam 0000                 __Lrparam 0000  
             ?_rtc_setup 0031               ?_pwm_setup 0031             _RPINR4_5bits 000E2C  
       __size_of_isr_low 00B8                 __ptext10 0F9E                 __ptext11 0F82  
               __ptext12 0FF2             _SSP1CON2bits 000FC5              ??_adc_setup 003F  
               _hid_loop 0F82            __size_of_main 0014            __size_of_loop 001A  
     __CFG_MSSPMSK1$MSK7 000000                 _isr_high 0008       __CFG_MSSPMSK2$MSK7 000000  
               _rxPtrOut 002D                 _txPtrOut 0030              ??_hid_setup 003F  
            ??_led_setup 003F               _INTCONbits 000FF2              ??_mem_check 003F  
       ??_movement_setup 003F              _RTCCON1bits 000F5F                 intlevel1 0000  
               intlevel2 0000               _RCSTA1bits 000FAB               _RCSTA3bits 000F2F  
            ??_rtc_setup 003F              ??_pwm_setup 003F            _comm_overflow 002A  
         setup@memStatus 003F      __CFG_WPCFG$WPCFGDIS 000000       __CFG_WINDIS$WDTSTD 000000  
 __CFG_DSWDTPS$DSWDTPS1A 000000  
